; Function Attrs: nounwind uwtable
define noundef ptr @PQconninfoParse(ptr noundef %0, ptr noundef writeonly captures(address_is_null) %1) local_unnamed_addr #0 {
  %3 = alloca %struct.PQExpBufferData, align 8
  call void @llvm.lifetime.start.p0(i64 24, ptr nonnull %3) #25
  %4 = icmp ne ptr %1, null
  br i1 %4, label %5, label %6

5:                                                ; preds = %2
  store ptr null, ptr %1, align 8
  br label %6

6:                                                ; preds = %5, %2
  call void @initPQExpBuffer(ptr noundef nonnull %3) #25
  %7 = getelementptr inbounds nuw i8, ptr %3, i64 16
  %8 = load i64, ptr %7, align 8
  %9 = icmp eq i64 %8, 0
  br i1 %9, label %16, label %10

10:                                               ; preds = %6
  %11 = call fastcc ptr @parse_connection_string(ptr noundef %0, ptr noundef %3, i1 noundef zeroext false)
  %12 = icmp eq ptr %11, null
  %or.cond = and i1 %4, %12
  br i1 %or.cond, label %13, label %15

13:                                               ; preds = %10
  %14 = load ptr, ptr %3, align 8
  store ptr %14, ptr %1, align 8
  br label %16

15:                                               ; preds = %10
  call void @termPQExpBuffer(ptr noundef nonnull %3) #25
  br label %16

16:                                               ; preds = %13, %15, %6
  %.0 = phi ptr [ null, %6 ], [ %11, %15 ], [ null, %13 ]
  call void @llvm.lifetime.end.p0(i64 24, ptr nonnull %3) #25
  ret ptr %.0
}